target datalayout = "e-m:e-p270:32:32-p271:32:32-p272:64:64-i64:64-i128:128-f80:128-n8:16:32:64-S128"
target triple = "x86_64-pc-linux-gnu"

%struct.Vec_Int_t_ = type { i32, i32, ptr }
%struct.SC_Man_ = type { ptr, ptr, i32, ptr, ptr, ptr, ptr, ptr, ptr, ptr, ptr, ptr, ptr, ptr, ptr, ptr, ptr, ptr, ptr, ptr, float, float, float, i32, ptr, ptr, ptr, ptr, ptr, ptr, ptr, i32, float, float, float, float, float, float, i64, i64, i64, i64, i64, ptr }
%struct.SC_Pair_ = type { float, float }
%struct.Abc_Obj_t_ = type { ptr, ptr, i32, i32, %struct.Vec_Int_t_, %struct.Vec_Int_t_, %union.anon, %union.anon.0 }
%union.anon = type { ptr }
%union.anon.0 = type { ptr }
%struct.Abc_Ntk_t_ = type { i32, i32, ptr, ptr, ptr, ptr, ptr, ptr, ptr, ptr, ptr, ptr, ptr, [11 x i32], i32, i32, i32, i32, ptr, i32, ptr, ptr, i32, i32, i32, double, i32, %struct.Vec_Int_t_, ptr, ptr, ptr, ptr, ptr, float, i32, ptr, ptr, ptr, ptr, ptr, ptr, ptr, ptr, ptr, ptr, ptr, ptr, ptr, ptr, ptr, ptr, ptr, ptr, ptr, ptr, ptr, ptr }
%struct.SC_Pin_ = type { ptr, i32, float, float, float, i32, i32, float, float, ptr, %struct.Vec_Wrd_t_, %struct.Vec_Ptr_t_ }
%struct.Vec_Wrd_t_ = type { i32, i32, ptr }
%struct.Vec_Ptr_t_ = type { i32, i32, ptr }
%struct.SC_Cell_ = type { ptr, i32, i32, i32, i32, float, float, i32, i32, i32, %struct.Vec_Ptr_t_, i32, i32, ptr, ptr, ptr, ptr, i32, i32 }
%struct.SC_Lib_ = type { ptr, ptr, ptr, ptr, float, i32, float, i32, %struct.Vec_Ptr_t_, %struct.Vec_Ptr_t_, %struct.Vec_Ptr_t_, %struct.Vec_Ptr_t_, %struct.Vec_Ptr_t_, ptr, i32 }

; Function Attrs: inlinehint nounwind uwtable
define internal i32 @Vec_IntEntry(ptr noundef %0, i32 noundef %1) #2 {
  %3 = alloca ptr, align 8
  %4 = alloca i32, align 4
  store ptr %0, ptr %3, align 8, !tbaa !28
  store i32 %1, ptr %4, align 4, !tbaa !8
  %5 = load ptr, ptr %3, align 8, !tbaa !28
  %6 = getelementptr inbounds nuw %struct.Vec_Int_t_, ptr %5, i32 0, i32 2
  %7 = load ptr, ptr %6, align 8, !tbaa !31
  %8 = load i32, ptr %4, align 4, !tbaa !8
  %9 = sext i32 %8 to i64
  %10 = getelementptr inbounds i32, ptr %7, i64 %9
  %11 = load i32, ptr %10, align 4, !tbaa !8
  ret i32 %11
}

; Function Attrs: inlinehint nounwind uwtable
define internal i32 @Abc_ObjId(ptr noundef %0) #2 {
  %2 = alloca ptr, align 8
  store ptr %0, ptr %2, align 8, !tbaa !36
  %3 = load ptr, ptr %2, align 8, !tbaa !36
  %4 = getelementptr inbounds nuw %struct.Abc_Obj_t_, ptr %3, i32 0, i32 2
  %5 = load i32, ptr %4, align 8, !tbaa !100
  ret i32 %5
}

; Function Attrs: inlinehint nounwind uwtable
define internal ptr @Vec_PtrEntry(ptr noundef %0, i32 noundef %1) #2 {
  %3 = alloca ptr, align 8
  %4 = alloca i32, align 4
  store ptr %0, ptr %3, align 8, !tbaa !87
  store i32 %1, ptr %4, align 4, !tbaa !8
  %5 = load ptr, ptr %3, align 8, !tbaa !87
  %6 = getelementptr inbounds nuw %struct.Vec_Ptr_t_, ptr %5, i32 0, i32 2
  %7 = load ptr, ptr %6, align 8, !tbaa !92
  %8 = load i32, ptr %4, align 4, !tbaa !8
  %9 = sext i32 %8 to i64
  %10 = getelementptr inbounds ptr, ptr %7, i64 %9
  %11 = load ptr, ptr %10, align 8, !tbaa !94
  ret ptr %11
}

; Function Attrs: inlinehint nounwind uwtable
define internal ptr @SC_LibCell(ptr noundef %0, i32 noundef %1) #2 {
  %3 = alloca ptr, align 8
  %4 = alloca i32, align 4
  store ptr %0, ptr %3, align 8, !tbaa !102
  store i32 %1, ptr %4, align 4, !tbaa !8
  %5 = load ptr, ptr %3, align 8, !tbaa !102
  %6 = getelementptr inbounds nuw %struct.SC_Lib_, ptr %5, i32 0, i32 11
  %7 = load i32, ptr %4, align 4, !tbaa !8
  %8 = call ptr @Vec_PtrEntry(ptr noundef %6, i32 noundef %7)
  ret ptr %8
}

; Function Attrs: inlinehint nounwind uwtable
define internal ptr @Abc_SclObjLib(ptr noundef %0) #2 {
  %2 = alloca ptr, align 8
  store ptr %0, ptr %2, align 8, !tbaa !36
  %3 = load ptr, ptr %2, align 8, !tbaa !36
  %4 = getelementptr inbounds nuw %struct.Abc_Obj_t_, ptr %3, i32 0, i32 0
  %5 = load ptr, ptr %4, align 8, !tbaa !91
  %6 = getelementptr inbounds nuw %struct.Abc_Ntk_t_, ptr %5, i32 0, i32 45
  %7 = load ptr, ptr %6, align 8, !tbaa !103
  ret ptr %7
}

; Function Attrs: inlinehint nounwind uwtable
define internal i32 @Abc_SclObjCellId(ptr noundef %0) #2 {
  %2 = alloca ptr, align 8
  store ptr %0, ptr %2, align 8, !tbaa !36
  %3 = load ptr, ptr %2, align 8, !tbaa !36
  %4 = getelementptr inbounds nuw %struct.Abc_Obj_t_, ptr %3, i32 0, i32 0
  %5 = load ptr, ptr %4, align 8, !tbaa !91
  %6 = getelementptr inbounds nuw %struct.Abc_Ntk_t_, ptr %5, i32 0, i32 46
  %7 = load ptr, ptr %6, align 8, !tbaa !101
  %8 = load ptr, ptr %2, align 8, !tbaa !36
  %9 = call i32 @Abc_ObjId(ptr noundef %8)
  %10 = call i32 @Vec_IntEntry(ptr noundef %7, i32 noundef %9)
  ret i32 %10
}

; Function Attrs: inlinehint nounwind uwtable
define internal ptr @Abc_ObjFanin0(ptr noundef %0) #2 {
  %2 = alloca ptr, align 8
  store ptr %0, ptr %2, align 8, !tbaa !36
  %3 = load ptr, ptr %2, align 8, !tbaa !36
  %4 = getelementptr inbounds nuw %struct.Abc_Obj_t_, ptr %3, i32 0, i32 0
  %5 = load ptr, ptr %4, align 8, !tbaa !91
  %6 = getelementptr inbounds nuw %struct.Abc_Ntk_t_, ptr %5, i32 0, i32 5
  %7 = load ptr, ptr %6, align 8, !tbaa !54
  %8 = getelementptr inbounds nuw %struct.Vec_Ptr_t_, ptr %7, i32 0, i32 2
  %9 = load ptr, ptr %8, align 8, !tbaa !92
  %10 = load ptr, ptr %2, align 8, !tbaa !36
  %11 = getelementptr inbounds nuw %struct.Abc_Obj_t_, ptr %10, i32 0, i32 4
  %12 = getelementptr inbounds nuw %struct.Vec_Int_t_, ptr %11, i32 0, i32 2
  %13 = load ptr, ptr %12, align 8, !tbaa !93
  %14 = getelementptr inbounds i32, ptr %13, i64 0
  %15 = load i32, ptr %14, align 4, !tbaa !8
  %16 = sext i32 %15 to i64
  %17 = getelementptr inbounds ptr, ptr %9, i64 %16
  %18 = load ptr, ptr %17, align 8, !tbaa !94
  ret ptr %18
}

; Function Attrs: inlinehint nounwind uwtable
define internal ptr @Abc_SclObjLoad(ptr noundef %0, ptr noundef %1) #2 {
  %3 = alloca ptr, align 8
  %4 = alloca ptr, align 8
  store ptr %0, ptr %3, align 8, !tbaa !34
  store ptr %1, ptr %4, align 8, !tbaa !36
  %5 = load ptr, ptr %3, align 8, !tbaa !34
  %6 = getelementptr inbounds nuw %struct.SC_Man_, ptr %5, i32 0, i32 8
  %7 = load ptr, ptr %6, align 8, !tbaa !52
  %8 = load ptr, ptr %4, align 8, !tbaa !36
  %9 = call i32 @Abc_ObjId(ptr noundef %8)
  %10 = zext i32 %9 to i64
  %11 = getelementptr inbounds nuw %struct.SC_Pair_, ptr %7, i64 %10
  ret ptr %11
}

; Function Attrs: inlinehint nounwind uwtable
define internal ptr @SC_CellPin(ptr noundef %0, i32 noundef %1) #2 {
  %3 = alloca ptr, align 8
  %4 = alloca i32, align 4
  store ptr %0, ptr %3, align 8, !tbaa !66
  store i32 %1, ptr %4, align 4, !tbaa !8
  %5 = load ptr, ptr %3, align 8, !tbaa !66
  %6 = getelementptr inbounds nuw %struct.SC_Cell_, ptr %5, i32 0, i32 10
  %7 = load i32, ptr %4, align 4, !tbaa !8
  %8 = call ptr @Vec_PtrEntry(ptr noundef %6, i32 noundef %7)
  ret ptr %8
}

; Function Attrs: inlinehint nounwind uwtable
define internal ptr @Abc_SclObjCell(ptr noundef %0) #2 {
  %2 = alloca ptr, align 8
  %3 = alloca i32, align 4
  store ptr %0, ptr %2, align 8, !tbaa !36
  call void @llvm.lifetime.start.p0(i64 4, ptr %3) #7
  %4 = load ptr, ptr %2, align 8, !tbaa !36
  %5 = call i32 @Abc_SclObjCellId(ptr noundef %4)
  store i32 %5, ptr %3, align 4, !tbaa !8
  %6 = load i32, ptr %3, align 4, !tbaa !8
  %7 = icmp eq i32 %6, -1
  br i1 %7, label %8, label %9

8:                                                ; preds = %1
  br label %14

9:                                                ; preds = %1
  %10 = load ptr, ptr %2, align 8, !tbaa !36
  %11 = call ptr @Abc_SclObjLib(ptr noundef %10)
  %12 = load i32, ptr %3, align 4, !tbaa !8
  %13 = call ptr @SC_LibCell(ptr noundef %11, i32 noundef %12)
  br label %14

14:                                               ; preds = %9, %8
  %15 = phi ptr [ null, %8 ], [ %13, %9 ]
  call void @llvm.lifetime.end.p0(i64 4, ptr %3) #7
  ret ptr %15
}

; Function Attrs: nounwind uwtable
define void @Abc_SclUpdateLoadSplit(ptr noundef %0, ptr noundef %1, ptr noundef %2) #0 {
  %4 = alloca ptr, align 8
  %5 = alloca ptr, align 8
  %6 = alloca ptr, align 8
  %7 = alloca ptr, align 8
  %8 = alloca ptr, align 8
  %9 = alloca i32, align 4
  store ptr %0, ptr %4, align 8, !tbaa !34
  store ptr %1, ptr %5, align 8, !tbaa !36
  store ptr %2, ptr %6, align 8, !tbaa !36
  call void @llvm.lifetime.start.p0(i64 8, ptr %7) #7
  call void @llvm.lifetime.start.p0(i64 8, ptr %8) #7
  call void @llvm.lifetime.start.p0(i64 4, ptr %9) #7
  %10 = load ptr, ptr %6, align 8, !tbaa !36
  %11 = load ptr, ptr %5, align 8, !tbaa !36
  %12 = call i32 @Abc_NodeFindFanin(ptr noundef %10, ptr noundef %11)
  store i32 %12, ptr %9, align 4, !tbaa !8
  %13 = load ptr, ptr %6, align 8, !tbaa !36
  %14 = call ptr @Abc_SclObjCell(ptr noundef %13)
  %15 = load i32, ptr %9, align 4, !tbaa !8
  %16 = call ptr @SC_CellPin(ptr noundef %14, i32 noundef %15)
  store ptr %16, ptr %7, align 8, !tbaa !67
  %17 = load ptr, ptr %4, align 8, !tbaa !34
  %18 = load ptr, ptr %5, align 8, !tbaa !36
  %19 = call ptr @Abc_SclObjLoad(ptr noundef %17, ptr noundef %18)
  store ptr %19, ptr %8, align 8, !tbaa !64
  %20 = load ptr, ptr %7, align 8, !tbaa !67
  %21 = getelementptr inbounds nuw %struct.SC_Pin_, ptr %20, i32 0, i32 3
  %22 = load float, ptr %21, align 8, !tbaa !69
  %23 = load ptr, ptr %8, align 8, !tbaa !64
  %24 = getelementptr inbounds nuw %struct.SC_Pair_, ptr %23, i32 0, i32 0
  %25 = load float, ptr %24, align 4, !tbaa !47
  %26 = fsub float %25, %22
  store float %26, ptr %24, align 4, !tbaa !47
  %27 = load ptr, ptr %7, align 8, !tbaa !67
  %28 = getelementptr inbounds nuw %struct.SC_Pin_, ptr %27, i32 0, i32 4
  %29 = load float, ptr %28, align 4, !tbaa !74
  %30 = load ptr, ptr %8, align 8, !tbaa !64
  %31 = getelementptr inbounds nuw %struct.SC_Pair_, ptr %30, i32 0, i32 1
  %32 = load float, ptr %31, align 4, !tbaa !49
  %33 = fsub float %32, %29
  store float %33, ptr %31, align 4, !tbaa !49
  %34 = load ptr, ptr %4, align 8, !tbaa !34
  %35 = load ptr, ptr %5, align 8, !tbaa !36
  %36 = call ptr @Abc_ObjFanin0(ptr noundef %35)
  %37 = call ptr @Abc_SclObjLoad(ptr noundef %34, ptr noundef %36)
  store ptr %37, ptr %8, align 8, !tbaa !64
  %38 = load ptr, ptr %7, align 8, !tbaa !67
  %39 = getelementptr inbounds nuw %struct.SC_Pin_, ptr %38, i32 0, i32 3
  %40 = load float, ptr %39, align 8, !tbaa !69
  %41 = load ptr, ptr %8, align 8, !tbaa !64
  %42 = getelementptr inbounds nuw %struct.SC_Pair_, ptr %41, i32 0, i32 0
  %43 = load float, ptr %42, align 4, !tbaa !47
  %44 = fadd float %43, %40
  store float %44, ptr %42, align 4, !tbaa !47
  %45 = load ptr, ptr %7, align 8, !tbaa !67
  %46 = getelementptr inbounds nuw %struct.SC_Pin_, ptr %45, i32 0, i32 4
  %47 = load float, ptr %46, align 4, !tbaa !74
  %48 = load ptr, ptr %8, align 8, !tbaa !64
  %49 = getelementptr inbounds nuw %struct.SC_Pair_, ptr %48, i32 0, i32 1
  %50 = load float, ptr %49, align 4, !tbaa !49
  %51 = fadd float %50, %47
  store float %51, ptr %49, align 4, !tbaa !49
  call void @llvm.lifetime.end.p0(i64 4, ptr %9) #7
  call void @llvm.lifetime.end.p0(i64 8, ptr %8) #7
  call void @llvm.lifetime.end.p0(i64 8, ptr %7) #7
  ret void
}