; Function Attrs: nounwind uwtable
define void @Abc_SclUpdateLoadSplit(ptr noundef readonly captures(none) %0, ptr noundef %1, ptr noundef %2) local_unnamed_addr #4 {
Abc_SclObjCell.exit:
  %3 = tail call i32 @Abc_NodeFindFanin(ptr noundef %2, ptr noundef %1) #13
  %.val18 = load ptr, ptr %2, align 8, !tbaa !67
  %4 = getelementptr i8, ptr %2, i64 16
  %.val19 = load i32, ptr %4, align 8, !tbaa !45
  %5 = getelementptr i8, ptr %.val18, i64 376
  %.val.val.i = load ptr, ptr %5, align 8, !tbaa !68
  %6 = getelementptr i8, ptr %.val.val.i, i64 8
  %.val.val.val.i = load ptr, ptr %6, align 8, !tbaa !10
  %7 = sext i32 %.val19 to i64
  %8 = getelementptr inbounds i32, ptr %.val.val.val.i, i64 %7
  %9 = load i32, ptr %8, align 4, !tbaa !11
  %10 = icmp ne i32 %9, -1
  tail call void @llvm.assume(i1 %10)
  %11 = getelementptr i8, ptr %.val18, i64 368
  %.val4.val.i = load ptr, ptr %11, align 8, !tbaa !69
  %12 = getelementptr i8, ptr %.val4.val.i, i64 104
  %.val5.i = load ptr, ptr %12, align 8, !tbaa !62
  %13 = sext i32 %9 to i64
  %14 = getelementptr inbounds ptr, ptr %.val5.i, i64 %13
  %15 = load ptr, ptr %14, align 8, !tbaa !63
  %16 = getelementptr i8, ptr %15, i64 56
  %.val20 = load ptr, ptr %16, align 8, !tbaa !62
  %17 = sext i32 %3 to i64
  %18 = getelementptr inbounds ptr, ptr %.val20, i64 %17
  %19 = load ptr, ptr %18, align 8, !tbaa !63
  %20 = getelementptr i8, ptr %0, i64 64
  %.val16 = load ptr, ptr %20, align 8, !tbaa !44
  %21 = getelementptr i8, ptr %1, i64 16
  %.val17 = load i32, ptr %21, align 8, !tbaa !45
  %22 = zext i32 %.val17 to i64
  %23 = getelementptr inbounds nuw %struct.SC_Pair_, ptr %.val16, i64 %22
  %24 = getelementptr inbounds nuw i8, ptr %19, i64 16
  %25 = load float, ptr %24, align 8, !tbaa !71
  %26 = load float, ptr %23, align 4, !tbaa !46
  %27 = fsub float %26, %25
  store float %27, ptr %23, align 4, !tbaa !46
  %28 = getelementptr inbounds nuw i8, ptr %19, i64 20
  %29 = load float, ptr %28, align 4, !tbaa !75
  %30 = getelementptr inbounds nuw i8, ptr %23, i64 4
  %31 = load float, ptr %30, align 4, !tbaa !48
  %32 = fsub float %31, %29
  store float %32, ptr %30, align 4, !tbaa !48
  %.val21 = load ptr, ptr %1, align 8, !tbaa !67
  %33 = getelementptr i8, ptr %1, i64 32
  %.val22 = load ptr, ptr %33, align 8, !tbaa !70
  %34 = getelementptr i8, ptr %.val21, i64 32
  %.val21.val = load ptr, ptr %34, align 8, !tbaa !50
  %.val22.val = load i32, ptr %.val22, align 4, !tbaa !11
  %35 = getelementptr i8, ptr %.val21.val, i64 8
  %.val21.val.val = load ptr, ptr %35, align 8, !tbaa !62
  %36 = sext i32 %.val22.val to i64
  %37 = getelementptr inbounds ptr, ptr %.val21.val.val, i64 %36
  %38 = load ptr, ptr %37, align 8, !tbaa !63
  %39 = getelementptr i8, ptr %38, i64 16
  %.val15 = load i32, ptr %39, align 8, !tbaa !45
  %40 = zext i32 %.val15 to i64
  %41 = getelementptr inbounds nuw %struct.SC_Pair_, ptr %.val16, i64 %40
  %42 = load float, ptr %41, align 4, !tbaa !46
  %43 = fadd float %25, %42
  store float %43, ptr %41, align 4, !tbaa !46
  %44 = getelementptr inbounds nuw i8, ptr %41, i64 4
  %45 = load float, ptr %44, align 4, !tbaa !48
  %46 = fadd float %29, %45
  store float %46, ptr %44, align 4, !tbaa !48
  ret void
}